target datalayout = "e-m:e-p270:32:32-p271:32:32-p272:64:64-i64:64-i128:128-f80:128-n8:16:32:64-S128"
target triple = "x86_64-pc-linux-gnu"

%struct._zval_struct = type { %union._zend_value, %union.anon, %union.anon.2 }
%union._zend_value = type { i64 }
%union.anon = type { i32 }
%union.anon.2 = type { i32 }
%union._zend_function = type { %struct._zend_op_array }
%struct._zend_op_array = type { i8, [3 x i8], i32, ptr, ptr, ptr, i32, i32, ptr, ptr, ptr, ptr, i32, ptr, i32, i32, i32, ptr, ptr, ptr, ptr, ptr, i32, i32, ptr, ptr, ptr, i32, i32, i32, i32, ptr, ptr, [6 x ptr] }
%struct._zend_refcounted_h = type { i32, %union.anon.4 }
%union.anon.4 = type { i32 }
%struct._zend_internal_function = type { i8, [3 x i8], i32, ptr, ptr, ptr, i32, i32, ptr, ptr, ptr, ptr, i32, ptr, ptr, ptr, ptr, [6 x ptr] }
%struct._zend_closure = type { %struct._zend_object, %union._zend_function, %struct._zval_struct, ptr, ptr }
%struct._zend_object = type { %struct._zend_refcounted_h, i32, i32, ptr, ptr, ptr, [1 x %struct._zval_struct] }
%struct.anon.3 = type { i8, [3 x i8], i32, ptr, ptr, ptr, i32, i32, ptr, ptr, ptr, ptr, i32, ptr }

@zend_known_strings = external global ptr, align 8
@zend_ce_closure = dso_local global ptr null, align 8

; Function Attrs: nounwind uwtable
define dso_local ptr @zend_get_closure_invoke_method(ptr noundef %0) #0 {
  %2 = alloca ptr, align 8
  %3 = alloca ptr, align 8
  %4 = alloca ptr, align 8
  %5 = alloca i32, align 4
  store ptr %0, ptr %2, align 8, !tbaa !33
  call void @llvm.lifetime.start.p0(i64 8, ptr %3) #11
  %6 = load ptr, ptr %2, align 8, !tbaa !33
  store ptr %6, ptr %3, align 8, !tbaa !40
  call void @llvm.lifetime.start.p0(i64 8, ptr %4) #11
  %7 = call noalias ptr @_emalloc_256()
  store ptr %7, ptr %4, align 8, !tbaa !17
  call void @llvm.lifetime.start.p0(i64 4, ptr %5) #11
  store i32 28672, ptr %5, align 4, !tbaa !18
  %8 = load ptr, ptr %4, align 8, !tbaa !17
  %9 = load ptr, ptr %3, align 8, !tbaa !40
  %10 = getelementptr inbounds nuw %struct._zend_closure, ptr %9, i32 0, i32 1
  call void @llvm.memcpy.p0.p0.i64(ptr align 8 %8, ptr align 8 %10, i64 88, i1 false), !tbaa.struct !105
  %11 = load ptr, ptr %4, align 8, !tbaa !17
  store i8 1, ptr %11, align 8, !tbaa !20
  %12 = load ptr, ptr %3, align 8, !tbaa !40
  %13 = getelementptr inbounds nuw %struct._zend_closure, ptr %12, i32 0, i32 1
  %14 = getelementptr inbounds nuw %struct.anon.3, ptr %13, i32 0, i32 2
  %15 = load i32, ptr %14, align 4, !tbaa !20
  %16 = and i32 %15, 28672
  %17 = or i32 262145, %16
  %18 = load ptr, ptr %4, align 8, !tbaa !17
  %19 = getelementptr inbounds nuw %struct._zend_internal_function, ptr %18, i32 0, i32 2
  store i32 %17, ptr %19, align 4, !tbaa !20
  %20 = load ptr, ptr %3, align 8, !tbaa !40
  %21 = getelementptr inbounds nuw %struct._zend_closure, ptr %20, i32 0, i32 1
  %22 = load i8, ptr %21, align 8, !tbaa !20
  %23 = zext i8 %22 to i32
  %24 = icmp ne i32 %23, 1
  br i1 %24, label %32, label %25

25:                                               ; preds = %1
  %26 = load ptr, ptr %3, align 8, !tbaa !40
  %27 = getelementptr inbounds nuw %struct._zend_closure, ptr %26, i32 0, i32 1
  %28 = getelementptr inbounds nuw %struct.anon.3, ptr %27, i32 0, i32 2
  %29 = load i32, ptr %28, align 4, !tbaa !20
  %30 = and i32 %29, 67108864
  %31 = icmp ne i32 %30, 0
  br i1 %31, label %32, label %37

32:                                               ; preds = %25, %1
  %33 = load ptr, ptr %4, align 8, !tbaa !17
  %34 = getelementptr inbounds nuw %struct._zend_internal_function, ptr %33, i32 0, i32 2
  %35 = load i32, ptr %34, align 4, !tbaa !20
  %36 = or i32 %35, 67108864
  store i32 %36, ptr %34, align 4, !tbaa !20
  br label %37

37:                                               ; preds = %32, %25
  %38 = load ptr, ptr %4, align 8, !tbaa !17
  %39 = getelementptr inbounds nuw %struct._zend_internal_function, ptr %38, i32 0, i32 14
  store ptr @zim_Closure___invoke, ptr %39, align 8, !tbaa !20
  %40 = load ptr, ptr %4, align 8, !tbaa !17
  %41 = getelementptr inbounds nuw %struct._zend_internal_function, ptr %40, i32 0, i32 11
  store ptr null, ptr %41, align 8, !tbaa !20
  %42 = load ptr, ptr %4, align 8, !tbaa !17
  %43 = getelementptr inbounds nuw %struct._zend_internal_function, ptr %42, i32 0, i32 15
  store ptr null, ptr %43, align 8, !tbaa !20
  %44 = load ptr, ptr @zend_ce_closure, align 8, !tbaa !47
  %45 = load ptr, ptr %4, align 8, !tbaa !17
  %46 = getelementptr inbounds nuw %struct._zend_internal_function, ptr %45, i32 0, i32 4
  store ptr %44, ptr %46, align 8, !tbaa !20
  %47 = load ptr, ptr @zend_known_strings, align 8, !tbaa !89
  %48 = getelementptr inbounds ptr, ptr %47, i64 23
  %49 = load ptr, ptr %48, align 8, !tbaa !52
  %50 = load ptr, ptr %4, align 8, !tbaa !17
  %51 = getelementptr inbounds nuw %struct._zend_internal_function, ptr %50, i32 0, i32 3
  store ptr %49, ptr %51, align 8, !tbaa !20
  %52 = load ptr, ptr %4, align 8, !tbaa !17
  call void @llvm.lifetime.end.p0(i64 4, ptr %5) #11
  call void @llvm.lifetime.end.p0(i64 8, ptr %4) #11
  call void @llvm.lifetime.end.p0(i64 8, ptr %3) #11
  ret ptr %52
}