; Function Attrs: nounwind uwtable
define dso_local noalias noundef ptr @zend_get_closure_invoke_method(ptr noundef readonly captures(none) %0) local_unnamed_addr #0 {
  %2 = tail call noalias ptr @_emalloc_256() #13
  %3 = getelementptr inbounds nuw i8, ptr %0, i64 56
  tail call void @llvm.memcpy.p0.p0.i64(ptr noundef nonnull align 8 dereferenceable(88) %2, ptr noundef nonnull align 8 dereferenceable(88) %3, i64 88, i1 false), !tbaa.struct !84
  store i8 1, ptr %2, align 8, !tbaa !15
  %4 = getelementptr inbounds nuw i8, ptr %0, i64 60
  %5 = load i32, ptr %4, align 4, !tbaa !15
  %6 = and i32 %5, 28672
  %7 = or disjoint i32 %6, 262145
  %8 = getelementptr inbounds nuw i8, ptr %2, i64 4
  store i32 %7, ptr %8, align 4, !tbaa !15
  %9 = load i8, ptr %3, align 8, !tbaa !15
  %.not = icmp eq i8 %9, 1
  %10 = and i32 %5, 67108864
  %.not15 = icmp eq i32 %10, 0
  %or.cond = select i1 %.not, i1 %.not15, i1 false
  br i1 %or.cond, label %13, label %11

11:                                               ; preds = %1
  %12 = or disjoint i32 %6, 67371009
  store i32 %12, ptr %8, align 4, !tbaa !15
  br label %13

13:                                               ; preds = %1, %11
  %14 = getelementptr inbounds nuw i8, ptr %2, i64 88
  store ptr @zim_Closure___invoke, ptr %14, align 8, !tbaa !15
  %15 = getelementptr inbounds nuw i8, ptr %2, i64 64
  store ptr null, ptr %15, align 8, !tbaa !15
  %16 = getelementptr inbounds nuw i8, ptr %2, i64 96
  store ptr null, ptr %16, align 8, !tbaa !15
  %17 = load ptr, ptr @zend_ce_closure, align 8, !tbaa !28
  %18 = getelementptr inbounds nuw i8, ptr %2, i64 16
  store ptr %17, ptr %18, align 8, !tbaa !15
  %19 = load ptr, ptr @zend_known_strings, align 8, !tbaa !59
  %20 = getelementptr inbounds nuw i8, ptr %19, i64 184
  %21 = load ptr, ptr %20, align 8, !tbaa !61
  %22 = getelementptr inbounds nuw i8, ptr %2, i64 8
  store ptr %21, ptr %22, align 8, !tbaa !15
  ret ptr %2
}